
target/thumbv7em-none-eabihf/release/blinky-pac:     file format elf32-littlearm


Disassembly of section .vector_table:

08000000 <__vector_table>:
 8000000:	2000c000 	andcs	ip, r0, r0

08000004 <__RESET_VECTOR>:
 8000004:	08000195 	stmdaeq	r0, {r0, r2, r4, r7, r8}

08000008 <__EXCEPTIONS>:
 8000008:	080002d1 	stmdaeq	r0, {r0, r4, r6, r7, r9}
 800000c:	080002e5 	stmdaeq	r0, {r0, r2, r5, r6, r7, r9}
 8000010:	080002d1 	stmdaeq	r0, {r0, r4, r6, r7, r9}
 8000014:	080002d1 	stmdaeq	r0, {r0, r4, r6, r7, r9}
 8000018:	080002d1 	stmdaeq	r0, {r0, r4, r6, r7, r9}
	...
 800002c:	080002d1 	stmdaeq	r0, {r0, r4, r6, r7, r9}
 8000030:	080002d1 	stmdaeq	r0, {r0, r4, r6, r7, r9}
 8000034:	00000000 	andeq	r0, r0, r0
 8000038:	080002d1 	stmdaeq	r0, {r0, r4, r6, r7, r9}
 800003c:	080002d1 	stmdaeq	r0, {r0, r4, r6, r7, r9}

08000040 <__INTERRUPTS>:
 8000040:	080002d1 	stmdaeq	r0, {r0, r4, r6, r7, r9}
 8000044:	080002d1 	stmdaeq	r0, {r0, r4, r6, r7, r9}
 8000048:	080002d1 	stmdaeq	r0, {r0, r4, r6, r7, r9}
 800004c:	080002d1 	stmdaeq	r0, {r0, r4, r6, r7, r9}
 8000050:	080002d1 	stmdaeq	r0, {r0, r4, r6, r7, r9}
 8000054:	080002d1 	stmdaeq	r0, {r0, r4, r6, r7, r9}
 8000058:	080002d1 	stmdaeq	r0, {r0, r4, r6, r7, r9}
 800005c:	080002d1 	stmdaeq	r0, {r0, r4, r6, r7, r9}
 8000060:	080002d1 	stmdaeq	r0, {r0, r4, r6, r7, r9}
 8000064:	080002d1 	stmdaeq	r0, {r0, r4, r6, r7, r9}
 8000068:	080002d1 	stmdaeq	r0, {r0, r4, r6, r7, r9}
 800006c:	080002d1 	stmdaeq	r0, {r0, r4, r6, r7, r9}
 8000070:	080002d1 	stmdaeq	r0, {r0, r4, r6, r7, r9}
 8000074:	080002d1 	stmdaeq	r0, {r0, r4, r6, r7, r9}
 8000078:	080002d1 	stmdaeq	r0, {r0, r4, r6, r7, r9}
 800007c:	080002d1 	stmdaeq	r0, {r0, r4, r6, r7, r9}
 8000080:	080002d1 	stmdaeq	r0, {r0, r4, r6, r7, r9}
 8000084:	080002d1 	stmdaeq	r0, {r0, r4, r6, r7, r9}
 8000088:	080002d1 	stmdaeq	r0, {r0, r4, r6, r7, r9}
 800008c:	080002d1 	stmdaeq	r0, {r0, r4, r6, r7, r9}
 8000090:	080002d1 	stmdaeq	r0, {r0, r4, r6, r7, r9}
 8000094:	080002d1 	stmdaeq	r0, {r0, r4, r6, r7, r9}
 8000098:	080002d1 	stmdaeq	r0, {r0, r4, r6, r7, r9}
 800009c:	080002d1 	stmdaeq	r0, {r0, r4, r6, r7, r9}
 80000a0:	080002d1 	stmdaeq	r0, {r0, r4, r6, r7, r9}
 80000a4:	080002d1 	stmdaeq	r0, {r0, r4, r6, r7, r9}
 80000a8:	080002d1 	stmdaeq	r0, {r0, r4, r6, r7, r9}
 80000ac:	080002d1 	stmdaeq	r0, {r0, r4, r6, r7, r9}
 80000b0:	080001ed 	stmdaeq	r0, {r0, r2, r3, r5, r6, r7, r8}
 80000b4:	080002d1 	stmdaeq	r0, {r0, r4, r6, r7, r9}
 80000b8:	00000000 	andeq	r0, r0, r0
 80000bc:	080002d1 	stmdaeq	r0, {r0, r4, r6, r7, r9}
 80000c0:	080002d1 	stmdaeq	r0, {r0, r4, r6, r7, r9}
 80000c4:	080002d1 	stmdaeq	r0, {r0, r4, r6, r7, r9}
 80000c8:	080002d1 	stmdaeq	r0, {r0, r4, r6, r7, r9}
 80000cc:	080002d1 	stmdaeq	r0, {r0, r4, r6, r7, r9}
 80000d0:	080002d1 	stmdaeq	r0, {r0, r4, r6, r7, r9}
 80000d4:	080002d1 	stmdaeq	r0, {r0, r4, r6, r7, r9}
 80000d8:	080002d1 	stmdaeq	r0, {r0, r4, r6, r7, r9}
 80000dc:	080002d1 	stmdaeq	r0, {r0, r4, r6, r7, r9}
 80000e0:	080002d1 	stmdaeq	r0, {r0, r4, r6, r7, r9}
 80000e4:	080002d1 	stmdaeq	r0, {r0, r4, r6, r7, r9}
 80000e8:	080002d1 	stmdaeq	r0, {r0, r4, r6, r7, r9}
	...
 8000104:	080002d1 	stmdaeq	r0, {r0, r4, r6, r7, r9}
 8000108:	00000000 	andeq	r0, r0, r0
 800010c:	080002d1 	stmdaeq	r0, {r0, r4, r6, r7, r9}
 8000110:	080002d1 	stmdaeq	r0, {r0, r4, r6, r7, r9}
 8000114:	00000000 	andeq	r0, r0, r0
 8000118:	080002d1 	stmdaeq	r0, {r0, r4, r6, r7, r9}
 800011c:	080002d1 	stmdaeq	r0, {r0, r4, r6, r7, r9}
 8000120:	080002d1 	stmdaeq	r0, {r0, r4, r6, r7, r9}
 8000124:	080002d1 	stmdaeq	r0, {r0, r4, r6, r7, r9}
 8000128:	080002d1 	stmdaeq	r0, {r0, r4, r6, r7, r9}
 800012c:	080002d1 	stmdaeq	r0, {r0, r4, r6, r7, r9}
 8000130:	080002d1 	stmdaeq	r0, {r0, r4, r6, r7, r9}
 8000134:	080002d1 	stmdaeq	r0, {r0, r4, r6, r7, r9}
 8000138:	080002d1 	stmdaeq	r0, {r0, r4, r6, r7, r9}
 800013c:	080002d1 	stmdaeq	r0, {r0, r4, r6, r7, r9}
 8000140:	080002d1 	stmdaeq	r0, {r0, r4, r6, r7, r9}
 8000144:	080002d1 	stmdaeq	r0, {r0, r4, r6, r7, r9}
 8000148:	080002d1 	stmdaeq	r0, {r0, r4, r6, r7, r9}
 800014c:	080002d1 	stmdaeq	r0, {r0, r4, r6, r7, r9}
 8000150:	080002d1 	stmdaeq	r0, {r0, r4, r6, r7, r9}
 8000154:	080002d1 	stmdaeq	r0, {r0, r4, r6, r7, r9}
 8000158:	080002d1 	stmdaeq	r0, {r0, r4, r6, r7, r9}
 800015c:	080002d1 	stmdaeq	r0, {r0, r4, r6, r7, r9}
 8000160:	080002d1 	stmdaeq	r0, {r0, r4, r6, r7, r9}
 8000164:	080002d1 	stmdaeq	r0, {r0, r4, r6, r7, r9}
 8000168:	080002d1 	stmdaeq	r0, {r0, r4, r6, r7, r9}
 800016c:	00000000 	andeq	r0, r0, r0
 8000170:	080002d1 	stmdaeq	r0, {r0, r4, r6, r7, r9}
 8000174:	080002d1 	stmdaeq	r0, {r0, r4, r6, r7, r9}
 8000178:	080002d1 	stmdaeq	r0, {r0, r4, r6, r7, r9}
 800017c:	080002d1 	stmdaeq	r0, {r0, r4, r6, r7, r9}
 8000180:	080002d1 	stmdaeq	r0, {r0, r4, r6, r7, r9}
 8000184:	080002d1 	stmdaeq	r0, {r0, r4, r6, r7, r9}
 8000188:	080002d1 	stmdaeq	r0, {r0, r4, r6, r7, r9}
 800018c:	080002d1 	stmdaeq	r0, {r0, r4, r6, r7, r9}
 8000190:	080002d1 	stmdaeq	r0, {r0, r4, r6, r7, r9}

Disassembly of section .text:

08000194 <Reset>:
 8000194:	f000 f89d 	bl	80002d2 <DefaultPreInit>
 8000198:	480e      	ldr	r0, [pc, #56]	@ (80001d4 <Reset+0x40>)
 800019a:	490f      	ldr	r1, [pc, #60]	@ (80001d8 <Reset+0x44>)
 800019c:	2200      	movs	r2, #0
 800019e:	4281      	cmp	r1, r0
 80001a0:	d001      	beq.n	80001a6 <Reset+0x12>
 80001a2:	c004      	stmia	r0!, {r2}
 80001a4:	e7fb      	b.n	800019e <Reset+0xa>
 80001a6:	480d      	ldr	r0, [pc, #52]	@ (80001dc <Reset+0x48>)
 80001a8:	490d      	ldr	r1, [pc, #52]	@ (80001e0 <Reset+0x4c>)
 80001aa:	4a0e      	ldr	r2, [pc, #56]	@ (80001e4 <Reset+0x50>)
 80001ac:	4281      	cmp	r1, r0
 80001ae:	d002      	beq.n	80001b6 <Reset+0x22>
 80001b0:	ca08      	ldmia	r2!, {r3}
 80001b2:	c008      	stmia	r0!, {r3}
 80001b4:	e7fa      	b.n	80001ac <Reset+0x18>
 80001b6:	480c      	ldr	r0, [pc, #48]	@ (80001e8 <Reset+0x54>)
 80001b8:	f44f 0170 	mov.w	r1, #15728640	@ 0xf00000
 80001bc:	6802      	ldr	r2, [r0, #0]
 80001be:	ea42 0201 	orr.w	r2, r2, r1
 80001c2:	6002      	str	r2, [r0, #0]
 80001c4:	f3bf 8f4f 	dsb	sy
 80001c8:	f3bf 8f6f 	isb	sy
 80001cc:	f000 f830 	bl	8000230 <main>
 80001d0:	de00      	udf	#0
 80001d2:	0000      	movs	r0, r0
 80001d4:	20000000 	andcs	r0, r0, r0
 80001d8:	20000004 	andcs	r0, r0, r4
 80001dc:	20000000 	andcs	r0, r0, r0
 80001e0:	20000000 	andcs	r0, r0, r0
 80001e4:	08000300 	stmdaeq	r0, {r8, r9}
 80001e8:	e000ed88 	and	lr, r0, r8, lsl #27

080001ec <TIM2>:
 80001ec:	f240 0100 	movw	r1, #0
 80001f0:	f2c2 0100 	movt	r1, #8192	@ 0x2000
 80001f4:	7808      	ldrb	r0, [r1, #0]
 80001f6:	2801      	cmp	r0, #1
 80001f8:	d115      	bne.n	8000226 <TIM2+0x3a>
 80001fa:	2010      	movs	r0, #16
 80001fc:	f2c4 0000 	movt	r0, #16384	@ 0x4000
 8000200:	6802      	ldr	r2, [r0, #0]
 8000202:	07d2      	lsls	r2, r2, #31
 8000204:	bf08      	it	eq
 8000206:	4770      	bxeq	lr
 8000208:	7849      	ldrb	r1, [r1, #1]
 800020a:	b169      	cbz	r1, 8000228 <TIM2+0x3c>
 800020c:	f240 4114 	movw	r1, #1044	@ 0x414
 8000210:	f6c4 0100 	movt	r1, #18432	@ 0x4800
 8000214:	680a      	ldr	r2, [r1, #0]
 8000216:	0652      	lsls	r2, r2, #25
 8000218:	f44f 0280 	mov.w	r2, #4194304	@ 0x400000
 800021c:	bf58      	it	pl
 800021e:	2240      	movpl	r2, #64	@ 0x40
 8000220:	604a      	str	r2, [r1, #4]
 8000222:	2100      	movs	r1, #0
 8000224:	6001      	str	r1, [r0, #0]
 8000226:	4770      	bx	lr
 8000228:	b580      	push	{r7, lr}
 800022a:	466f      	mov	r7, sp
 800022c:	f000 f84c 	bl	80002c8 <_ZN4core6option13unwrap_failed17h7862ad8064d6fc0bE>

08000230 <main>:
 8000230:	b580      	push	{r7, lr}
 8000232:	466f      	mov	r7, sp
 8000234:	f000 f800 	bl	8000238 <_ZN10blinky_pac18__cortex_m_rt_main17hddeb6bd58fff0f15E>

08000238 <_ZN10blinky_pac18__cortex_m_rt_main17hddeb6bd58fff0f15E>:
 8000238:	b580      	push	{r7, lr}
 800023a:	466f      	mov	r7, sp
 800023c:	f000 f84f 	bl	80002de <__primask_r>
 8000240:	4604      	mov	r4, r0
 8000242:	f000 f848 	bl	80002d6 <__cpsid>
 8000246:	f240 0500 	movw	r5, #0
 800024a:	f2c2 0500 	movt	r5, #8192	@ 0x2000
 800024e:	78ae      	ldrb	r6, [r5, #2]
 8000250:	2e00      	cmp	r6, #0
 8000252:	bf04      	itt	eq
 8000254:	2001      	moveq	r0, #1
 8000256:	70a8      	strbeq	r0, [r5, #2]
 8000258:	07e0      	lsls	r0, r4, #31
 800025a:	bf08      	it	eq
 800025c:	f000 f83d 	bleq	80002da <__cpsie>
 8000260:	bb46      	cbnz	r6, 80002b4 <_ZN10blinky_pac18__cortex_m_rt_main17hddeb6bd58fff0f15E+0x7c>
 8000262:	f241 004c 	movw	r0, #4172	@ 0x104c
 8000266:	2102      	movs	r1, #2
 8000268:	f2c4 0002 	movt	r0, #16386	@ 0x4002
 800026c:	f44f 5294 	mov.w	r2, #4736	@ 0x1280
 8000270:	6001      	str	r1, [r0, #0]
 8000272:	f240 1101 	movw	r1, #257	@ 0x101
 8000276:	8029      	strh	r1, [r5, #0]
 8000278:	2101      	movs	r1, #1
 800027a:	60c1      	str	r1, [r0, #12]
 800027c:	f240 4000 	movw	r0, #1024	@ 0x400
 8000280:	f6c4 0000 	movt	r0, #18432	@ 0x4800
 8000284:	6002      	str	r2, [r0, #0]
 8000286:	2200      	movs	r2, #0
 8000288:	6042      	str	r2, [r0, #4]
 800028a:	200c      	movs	r0, #12
 800028c:	f2c4 0000 	movt	r0, #16384	@ 0x4000
 8000290:	f240 128f 	movw	r2, #399	@ 0x18f
 8000294:	61c2      	str	r2, [r0, #28]
 8000296:	f242 720f 	movw	r2, #9999	@ 0x270f
 800029a:	6202      	str	r2, [r0, #32]
 800029c:	f04f 5280 	mov.w	r2, #268435456	@ 0x10000000
 80002a0:	6001      	str	r1, [r0, #0]
 80002a2:	f24e 1000 	movw	r0, #57600	@ 0xe100
 80002a6:	f2ce 0000 	movt	r0, #57344	@ 0xe000
 80002aa:	6002      	str	r2, [r0, #0]
 80002ac:	f04f 4080 	mov.w	r0, #1073741824	@ 0x40000000
 80002b0:	6001      	str	r1, [r0, #0]
 80002b2:	e7fe      	b.n	80002b2 <_ZN10blinky_pac18__cortex_m_rt_main17hddeb6bd58fff0f15E+0x7a>
 80002b4:	f000 f808 	bl	80002c8 <_ZN4core6option13unwrap_failed17h7862ad8064d6fc0bE>

080002b8 <_ZN4core9panicking9panic_fmt17hfc78cf87d9b52ef4E>:
 80002b8:	b580      	push	{r7, lr}
 80002ba:	466f      	mov	r7, sp
 80002bc:	f000 f80a 	bl	80002d4 <rust_begin_unwind>

080002c0 <_ZN4core9panicking5panic17h552d5519ef885633E>:
 80002c0:	b580      	push	{r7, lr}
 80002c2:	466f      	mov	r7, sp
 80002c4:	f7ff fff8 	bl	80002b8 <_ZN4core9panicking9panic_fmt17hfc78cf87d9b52ef4E>

080002c8 <_ZN4core6option13unwrap_failed17h7862ad8064d6fc0bE>:
 80002c8:	b580      	push	{r7, lr}
 80002ca:	466f      	mov	r7, sp
 80002cc:	f7ff fff8 	bl	80002c0 <_ZN4core9panicking5panic17h552d5519ef885633E>

080002d0 <DefaultHandler_>:
 80002d0:	e7fe      	b.n	80002d0 <DefaultHandler_>

080002d2 <DefaultPreInit>:
 80002d2:	4770      	bx	lr

080002d4 <rust_begin_unwind>:
 80002d4:	e7fe      	b.n	80002d4 <rust_begin_unwind>

080002d6 <__cpsid>:
 80002d6:	b672      	cpsid	i
 80002d8:	4770      	bx	lr

080002da <__cpsie>:
 80002da:	b662      	cpsie	i
 80002dc:	4770      	bx	lr

080002de <__primask_r>:
 80002de:	f3ef 8010 	mrs	r0, PRIMASK
 80002e2:	4770      	bx	lr

080002e4 <HardFaultTrampoline>:
 80002e4:	4670      	mov	r0, lr
 80002e6:	2104      	movs	r1, #4
 80002e8:	4208      	tst	r0, r1
 80002ea:	d103      	bne.n	80002f4 <HardFaultTrampoline+0x10>
 80002ec:	f3ef 8008 	mrs	r0, MSP
 80002f0:	f000 b804 	b.w	80002fc <HardFault_>
 80002f4:	f3ef 8009 	mrs	r0, PSP
 80002f8:	f000 b800 	b.w	80002fc <HardFault_>

080002fc <HardFault_>:
 80002fc:	e7fe      	b.n	80002fc <HardFault_>
 80002fe:	d4d4      	bmi.n	80002aa <_ZN10blinky_pac18__cortex_m_rt_main17hddeb6bd58fff0f15E+0x72>
